target datalayout = "e-m:e-p270:32:32-p271:32:32-p272:64:64-i64:64-i128:128-f80:128-n8:16:32:64-S128"
target triple = "x86_64-pc-linux-gnu"

%struct.FT_GlyphRec_ = type { ptr, ptr, i32, %struct.FT_Vector_ }
%struct.FT_Vector_ = type { i64, i64 }
%struct.FT_Glyph_Class_ = type { i64, i32, ptr, ptr, ptr, ptr, ptr, ptr }

; Function Attrs: nounwind uwtable
define i32 @FT_Glyph_Transform(ptr noundef %0, ptr noundef %1, ptr noundef %2) #0 {
  %4 = alloca ptr, align 8
  %5 = alloca ptr, align 8
  %6 = alloca ptr, align 8
  %7 = alloca i32, align 4
  %8 = alloca ptr, align 8
  store ptr %0, ptr %4, align 8, !tbaa !3
  store ptr %1, ptr %5, align 8, !tbaa !67
  store ptr %2, ptr %6, align 8, !tbaa !69
  call void @llvm.lifetime.start.p0(i64 4, ptr %7) #6
  store i32 0, ptr %7, align 4, !tbaa !12
  %9 = load ptr, ptr %4, align 8, !tbaa !3
  %10 = icmp ne ptr %9, null
  br i1 %10, label %11, label %16

11:                                               ; preds = %3
  %12 = load ptr, ptr %4, align 8, !tbaa !3
  %13 = getelementptr inbounds nuw %struct.FT_GlyphRec_, ptr %12, i32 0, i32 1
  %14 = load ptr, ptr %13, align 8, !tbaa !116
  %15 = icmp ne ptr %14, null
  br i1 %15, label %17, label %16

16:                                               ; preds = %11, %3
  store i32 6, ptr %7, align 4, !tbaa !12
  br label %41

17:                                               ; preds = %11
  call void @llvm.lifetime.start.p0(i64 8, ptr %8) #6
  %18 = load ptr, ptr %4, align 8, !tbaa !3
  %19 = getelementptr inbounds nuw %struct.FT_GlyphRec_, ptr %18, i32 0, i32 1
  %20 = load ptr, ptr %19, align 8, !tbaa !116
  store ptr %20, ptr %8, align 8, !tbaa !117
  %21 = load ptr, ptr %8, align 8, !tbaa !117
  %22 = getelementptr inbounds nuw %struct.FT_Glyph_Class_, ptr %21, i32 0, i32 5
  %23 = load ptr, ptr %22, align 8, !tbaa !130
  %24 = icmp ne ptr %23, null
  br i1 %24, label %25, label %39

25:                                               ; preds = %17
  %26 = load ptr, ptr %8, align 8, !tbaa !117
  %27 = getelementptr inbounds nuw %struct.FT_Glyph_Class_, ptr %26, i32 0, i32 5
  %28 = load ptr, ptr %27, align 8, !tbaa !130
  %29 = load ptr, ptr %4, align 8, !tbaa !3
  %30 = load ptr, ptr %5, align 8, !tbaa !67
  %31 = load ptr, ptr %6, align 8, !tbaa !69
  call void %28(ptr noundef %29, ptr noundef %30, ptr noundef %31)
  %32 = load ptr, ptr %5, align 8, !tbaa !67
  %33 = icmp ne ptr %32, null
  br i1 %33, label %34, label %38

34:                                               ; preds = %25
  %35 = load ptr, ptr %4, align 8, !tbaa !3
  %36 = getelementptr inbounds nuw %struct.FT_GlyphRec_, ptr %35, i32 0, i32 3
  %37 = load ptr, ptr %5, align 8, !tbaa !67
  call void @FT_Vector_Transform(ptr noundef %36, ptr noundef %37)
  br label %38

38:                                               ; preds = %34, %25
  br label %40

39:                                               ; preds = %17
  store i32 18, ptr %7, align 4, !tbaa !12
  br label %40

40:                                               ; preds = %39, %38
  call void @llvm.lifetime.end.p0(i64 8, ptr %8) #6
  br label %41

41:                                               ; preds = %40, %16
  %42 = load i32, ptr %7, align 4, !tbaa !12
  call void @llvm.lifetime.end.p0(i64 4, ptr %7) #6
  ret i32 %42
}