; Function Attrs: nounwind uwtable
define range(i32 0, 19) i32 @FT_Glyph_Transform(ptr noundef %0, ptr noundef %1, ptr noundef %2) local_unnamed_addr #0 {
  %.not = icmp eq ptr %0, null
  br i1 %.not, label %13, label %4

4:                                                ; preds = %3
  %5 = getelementptr inbounds nuw i8, ptr %0, i64 8
  %6 = load ptr, ptr %5, align 8, !tbaa !95
  %.not15 = icmp eq ptr %6, null
  br i1 %.not15, label %13, label %7

7:                                                ; preds = %4
  %8 = getelementptr inbounds nuw i8, ptr %6, i64 40
  %9 = load ptr, ptr %8, align 8, !tbaa !109
  %.not16 = icmp eq ptr %9, null
  br i1 %.not16, label %13, label %10

10:                                               ; preds = %7
  tail call void %9(ptr noundef nonnull %0, ptr noundef %1, ptr noundef %2) #6
  %.not17 = icmp eq ptr %1, null
  br i1 %.not17, label %13, label %11

11:                                               ; preds = %10
  %12 = getelementptr inbounds nuw i8, ptr %0, i64 24
  tail call void @FT_Vector_Transform(ptr noundef nonnull %12, ptr noundef nonnull %1) #6
  br label %13

13:                                               ; preds = %11, %10, %7, %3, %4
  %.0 = phi i32 [ 6, %4 ], [ 6, %3 ], [ 0, %11 ], [ 0, %10 ], [ 18, %7 ]
  ret i32 %.0
}